; Function Attrs: mustprogress uwtable
define dso_local void @_ZNK15btCompoundShape21calculateLocalInertiaEfR9btVector3(ptr noundef nonnull align 8 dereferenceable(128) %this, float noundef %mass, ptr nocapture noundef nonnull writeonly align 4 dereferenceable(16) %inertia) unnamed_addr #6 align 2 {
entry:
  %ident = alloca %class.btTransform, align 4
  %aabbMin = alloca %class.btVector3, align 8
  %aabbMax = alloca %class.btVector3, align 8
  store float 1.000000e+00, ptr %ident, align 4
  %arrayidx3.i.i.i.i = getelementptr inbounds i8, ptr %ident, i64 4
  %arrayidx3.i1.i.i.i = getelementptr inbounds i8, ptr %ident, i64 20
  call void @llvm.memset.p0.i64(ptr noundef nonnull align 4 dereferenceable(16) %arrayidx3.i.i.i.i, i8 0, i64 16, i1 false)
  store float 1.000000e+00, ptr %arrayidx3.i1.i.i.i, align 4
  %arrayidx5.i2.i.i.i = getelementptr inbounds i8, ptr %ident, i64 24
  %arrayidx5.i5.i.i.i = getelementptr inbounds i8, ptr %ident, i64 40
  call void @llvm.memset.p0.i64(ptr noundef nonnull align 4 dereferenceable(16) %arrayidx5.i2.i.i.i, i8 0, i64 16, i1 false)
  store float 1.000000e+00, ptr %arrayidx5.i5.i.i.i, align 4
  %arrayidx7.i6.i.i.i = getelementptr inbounds i8, ptr %ident, i64 44
  call void @llvm.memset.p0.i64(ptr noundef nonnull align 4 dereferenceable(20) %arrayidx7.i6.i.i.i, i8 0, i64 20, i1 false)
  %vtable = load ptr, ptr %this, align 8
  %vfn = getelementptr inbounds i8, ptr %vtable, i64 16
  %0 = load ptr, ptr %vfn, align 8
  call void %0(ptr noundef nonnull align 8 dereferenceable(128) %this, ptr noundef nonnull align 4 dereferenceable(64) %ident, ptr noundef nonnull align 4 dereferenceable(16) %aabbMin, ptr noundef nonnull align 4 dereferenceable(16) %aabbMax)
  %arrayidx11.i = getelementptr inbounds i8, ptr %aabbMax, i64 8
  %1 = load float, ptr %arrayidx11.i, align 8
  %arrayidx13.i = getelementptr inbounds i8, ptr %aabbMin, i64 8
  %2 = load float, ptr %arrayidx13.i, align 8
  %sub14.i = fsub float %1, %2
  %mul8.i = fmul float %sub14.i, 5.000000e-01
  %mul9 = fmul float %mul8.i, 2.000000e+00
  %div = fdiv float %mass, 1.200000e+01
  %mul11 = fmul float %mul9, %mul9
  %3 = load <2 x float>, ptr %aabbMax, align 8
  %4 = load <2 x float>, ptr %aabbMin, align 8
  %5 = fsub <2 x float> %3, %4
  %6 = fmul <2 x float> %5, <float 5.000000e-01, float 5.000000e-01>
  %7 = fmul <2 x float> %6, <float 2.000000e+00, float 2.000000e+00>
  %8 = insertelement <2 x float> poison, float %mul11, i64 0
  %9 = shufflevector <2 x float> %8, <2 x float> poison, <2 x i32> zeroinitializer
  %10 = call <2 x float> @llvm.fmuladd.v2f32(<2 x float> %7, <2 x float> %7, <2 x float> %9)
  %11 = insertelement <2 x float> poison, float %div, i64 0
  %12 = shufflevector <2 x float> %11, <2 x float> poison, <2 x i32> zeroinitializer
  %13 = fmul <2 x float> %12, %10
  %14 = shufflevector <2 x float> %13, <2 x float> poison, <2 x i32> <i32 1, i32 0>
  store <2 x float> %14, ptr %inertia, align 4
  %15 = fmul <2 x float> %7, %7
  %mul22 = extractelement <2 x float> %15, i64 1
  %16 = extractelement <2 x float> %7, i64 0
  %17 = call float @llvm.fmuladd.f32(float %16, float %16, float %mul22)
  %mul23 = fmul float %div, %17
  %arrayidx25 = getelementptr inbounds i8, ptr %inertia, i64 8
  store float %mul23, ptr %arrayidx25, align 4
  ret void
}